; Function Attrs: nounwind uwtable
define i32 @BN_mod_lshift1(ptr noundef %0, ptr noundef %1, ptr noundef %2, ptr noundef %3) local_unnamed_addr #0 {
  %5 = tail call i32 @BN_lshift1(ptr noundef %0, ptr noundef %1) #4
  %.not = icmp eq i32 %5, 0
  br i1 %.not, label %BN_nnmod.exit, label %6

6:                                                ; preds = %4
  %7 = icmp eq ptr %0, %2
  br i1 %7, label %8, label %9

8:                                                ; preds = %6
  tail call void @ERR_new() #4
  tail call void @ERR_set_debug(ptr noundef nonnull @.str, i32 noundef 22, ptr noundef nonnull @__func__.BN_nnmod) #4
  tail call void (i32, i32, ptr, ...) @ERR_set_error(i32 noundef 3, i32 noundef 524550, ptr noundef null) #4
  br label %BN_nnmod.exit

9:                                                ; preds = %6
  %10 = tail call i32 @BN_div(ptr noundef null, ptr noundef %0, ptr noundef %0, ptr noundef %2, ptr noundef %3) #4
  %.not.i = icmp eq i32 %10, 0
  br i1 %.not.i, label %BN_nnmod.exit, label %11

11:                                               ; preds = %9
  %12 = getelementptr inbounds nuw i8, ptr %0, i64 16
  %13 = load i32, ptr %12, align 8, !tbaa !3
  %.not13.i = icmp eq i32 %13, 0
  br i1 %.not13.i, label %BN_nnmod.exit, label %14

14:                                               ; preds = %11
  %15 = getelementptr inbounds nuw i8, ptr %2, i64 16
  %16 = load i32, ptr %15, align 8, !tbaa !3
  %.not14.i = icmp eq i32 %16, 0
  %17 = select i1 %.not14.i, ptr @BN_add, ptr @BN_sub
  %18 = tail call i32 %17(ptr noundef nonnull %0, ptr noundef nonnull %0, ptr noundef %2) #4, !callees !10
  br label %BN_nnmod.exit

BN_nnmod.exit:                                    ; preds = %14, %11, %9, %8, %4
  %.0 = phi i32 [ 0, %4 ], [ 0, %8 ], [ %18, %14 ], [ 0, %9 ], [ 1, %11 ]
  ret i32 %.0
}